; Function Attrs: mustprogress uwtable
define dso_local noundef i32 @_ZN4absl16strings_internal13OStringStream9Streambuf8overflowEi(ptr noundef nonnull readonly align 8 captures(none) dereferenceable(72) %0, i32 noundef %1) unnamed_addr #0 align 2 personality ptr @__gxx_personality_v0 {
  %3 = icmp eq i32 %1, -1
  br i1 %3, label %24, label %4

4:                                                ; preds = %2
  %5 = getelementptr inbounds nuw i8, ptr %0, i64 64
  %6 = load ptr, ptr %5, align 8, !tbaa !4
  %7 = trunc i32 %1 to i8
  %8 = getelementptr inbounds nuw i8, ptr %6, i64 8
  %9 = load i64, ptr %8, align 8, !tbaa !14
  %10 = add i64 %9, 1
  %11 = load ptr, ptr %6, align 8, !tbaa !18
  %12 = getelementptr inbounds nuw i8, ptr %6, i64 16
  %13 = icmp eq ptr %11, %12
  br i1 %13, label %14, label %_ZNKSt7__cxx1112basic_stringIcSt11char_traitsIcESaIcEE8capacityEv.exit.i

14:                                               ; preds = %4
  %15 = icmp ult i64 %9, 16
  tail call void @llvm.assume(i1 %15)
  br label %_ZNKSt7__cxx1112basic_stringIcSt11char_traitsIcESaIcEE8capacityEv.exit.i

_ZNKSt7__cxx1112basic_stringIcSt11char_traitsIcESaIcEE8capacityEv.exit.i: ; preds = %14, %4
  %16 = load i64, ptr %12, align 8
  %17 = select i1 %13, i64 15, i64 %16
  %18 = icmp ugt i64 %10, %17
  br i1 %18, label %19, label %_ZNSt7__cxx1112basic_stringIcSt11char_traitsIcESaIcEE9push_backEc.exit

19:                                               ; preds = %_ZNKSt7__cxx1112basic_stringIcSt11char_traitsIcESaIcEE8capacityEv.exit.i
  tail call void @_ZNSt7__cxx1112basic_stringIcSt11char_traitsIcESaIcEE9_M_mutateEmmPKcm(ptr noundef nonnull align 8 dereferenceable(32) %6, i64 noundef %9, i64 noundef 0, ptr noundef null, i64 noundef 1)
  %.pre.i = load ptr, ptr %6, align 8, !tbaa !18
  br label %_ZNSt7__cxx1112basic_stringIcSt11char_traitsIcESaIcEE9push_backEc.exit

_ZNSt7__cxx1112basic_stringIcSt11char_traitsIcESaIcEE9push_backEc.exit: ; preds = %_ZNKSt7__cxx1112basic_stringIcSt11char_traitsIcESaIcEE8capacityEv.exit.i, %19
  %20 = phi ptr [ %.pre.i, %19 ], [ %11, %_ZNKSt7__cxx1112basic_stringIcSt11char_traitsIcESaIcEE8capacityEv.exit.i ]
  %21 = getelementptr inbounds nuw i8, ptr %20, i64 %9
  store i8 %7, ptr %21, align 1, !tbaa !19
  store i64 %10, ptr %8, align 8, !tbaa !14
  %22 = load ptr, ptr %6, align 8, !tbaa !18
  %23 = getelementptr inbounds nuw i8, ptr %22, i64 %10
  store i8 0, ptr %23, align 1, !tbaa !19
  br label %24

24:                                               ; preds = %_ZNSt7__cxx1112basic_stringIcSt11char_traitsIcESaIcEE9push_backEc.exit, %2
  ret i32 1
}